; Function Attrs: nofree nounwind uwtable
define hidden void @zend_dump_ssa_variables(ptr nocapture noundef readonly %0, ptr nocapture noundef readonly %1, i32 noundef %2) local_unnamed_addr #3 {
  %4 = getelementptr inbounds i8, ptr %1, i64 64
  %5 = load ptr, ptr %4, align 8
  %.not = icmp eq ptr %5, null
  br i1 %.not, label %.loopexit, label %6

6:                                                ; preds = %3
  %7 = load ptr, ptr @stderr, align 8
  %8 = tail call i64 @fwrite(ptr nonnull @.str.107, i64 19, i64 1, ptr %7) #7
  %9 = getelementptr inbounds i8, ptr %0, i64 8
  %10 = load ptr, ptr %9, align 8
  %.not.i = icmp eq ptr %10, null
  br i1 %.not.i, label %25, label %11

11:                                               ; preds = %6
  %12 = getelementptr inbounds i8, ptr %0, i64 16
  %13 = load ptr, ptr %12, align 8
  %.not8.i = icmp eq ptr %13, null
  br i1 %.not8.i, label %22, label %14

14:                                               ; preds = %11
  %15 = getelementptr inbounds i8, ptr %13, i64 8
  %16 = load ptr, ptr %15, align 8
  %.not9.i = icmp eq ptr %16, null
  br i1 %.not9.i, label %22, label %17

17:                                               ; preds = %14
  %18 = load ptr, ptr @stderr, align 8
  %19 = getelementptr inbounds i8, ptr %16, i64 24
  %20 = getelementptr inbounds i8, ptr %10, i64 24
  %21 = tail call i32 (ptr, ptr, ...) @fprintf(ptr noundef %18, ptr noundef nonnull @.str.70, ptr noundef nonnull %19, ptr noundef nonnull %20) #8
  br label %zend_dump_op_array_name.exit

22:                                               ; preds = %14, %11
  %23 = load ptr, ptr @stderr, align 8
  %24 = getelementptr inbounds i8, ptr %10, i64 24
  %fputs.i = tail call i32 @fputs(ptr nonnull %24, ptr %23) #7
  br label %zend_dump_op_array_name.exit

25:                                               ; preds = %6
  %26 = load ptr, ptr @stderr, align 8
  %27 = tail call i64 @fwrite(ptr nonnull @.str.71, i64 6, i64 1, ptr %26) #7
  br label %zend_dump_op_array_name.exit

zend_dump_op_array_name.exit:                     ; preds = %17, %22, %25
  %28 = load ptr, ptr @stderr, align 8
  %29 = tail call i64 @fwrite(ptr nonnull @.str.104, i64 2, i64 1, ptr %28) #7
  %30 = getelementptr inbounds i8, ptr %1, i64 40
  %31 = load i32, ptr %30, align 8
  %32 = icmp sgt i32 %31, 0
  br i1 %32, label %.lr.ph, label %.loopexit

.lr.ph:                                           ; preds = %zend_dump_op_array_name.exit, %55
  %indvars.iv = phi i64 [ %indvars.iv.next, %55 ], [ 0, %zend_dump_op_array_name.exit ]
  %33 = load ptr, ptr @stderr, align 8
  %34 = tail call i64 @fwrite(ptr nonnull @.str.106, i64 4, i64 1, ptr %33) #7
  %35 = load ptr, ptr %4, align 8
  %36 = getelementptr inbounds %struct._zend_ssa_var, ptr %35, i64 %indvars.iv
  %37 = load i32, ptr %36, align 8
  %38 = trunc i64 %indvars.iv to i32
  tail call void @zend_dump_ssa_var(ptr noundef %0, ptr noundef nonnull %1, i32 noundef %38, i8 noundef zeroext 8, i32 noundef %37, i32 noundef %2)
  %39 = load ptr, ptr %4, align 8
  %40 = getelementptr inbounds %struct._zend_ssa_var, ptr %39, i64 %indvars.iv
  %41 = getelementptr inbounds i8, ptr %40, i64 4
  %42 = load i32, ptr %41, align 4
  %43 = icmp sgt i32 %42, -1
  br i1 %43, label %44, label %55

44:                                               ; preds = %.lr.ph
  %45 = getelementptr inbounds i8, ptr %40, i64 40
  %46 = load i8, ptr %45, align 8
  %47 = and i8 %46, 2
  %.not16 = icmp eq i8 %47, 0
  %48 = load ptr, ptr @stderr, align 8
  %.str.109..str.108 = select i1 %.not16, ptr @.str.109, ptr @.str.108
  %49 = tail call i64 @fwrite(ptr nonnull %.str.109..str.108, i64 2, i64 1, ptr %48) #7
  %50 = load ptr, ptr @stderr, align 8
  %51 = load ptr, ptr %4, align 8
  %52 = getelementptr inbounds %struct._zend_ssa_var, ptr %51, i64 %indvars.iv, i32 1
  %53 = load i32, ptr %52, align 4
  %54 = tail call i32 (ptr, ptr, ...) @fprintf(ptr noundef %50, ptr noundef nonnull @.str.110, i32 noundef %53) #8
  br label %55

55:                                               ; preds = %44, %.lr.ph
  %56 = load ptr, ptr @stderr, align 8
  %fputc = tail call i32 @fputc(i32 10, ptr %56)
  %indvars.iv.next = add nuw nsw i64 %indvars.iv, 1
  %57 = load i32, ptr %30, align 8
  %58 = sext i32 %57 to i64
  %59 = icmp slt i64 %indvars.iv.next, %58
  br i1 %59, label %.lr.ph, label %.loopexit

.loopexit:                                        ; preds = %55, %zend_dump_op_array_name.exit, %3
  ret void
}